; Function Attrs: nounwind uwtable
define dso_local i32 @uv_udp_recv_stop(ptr noundef %0) local_unnamed_addr #0 {
  %2 = getelementptr inbounds nuw i8, ptr %0, i64 16
  %3 = load i32, ptr %2, align 8, !tbaa !38
  %.not = icmp eq i32 %3, 15
  br i1 %.not, label %4, label %6

4:                                                ; preds = %1
  %5 = tail call i32 @uv__udp_recv_stop(ptr noundef nonnull %0) #26
  br label %6

6:                                                ; preds = %1, %4
  %.0 = phi i32 [ %5, %4 ], [ -22, %1 ]
  ret i32 %.0
}